ccopy_reg
_reconstructor
p0
(csklearn.feature_extraction.dict_vectorizer
DictVectorizer
p1
c__builtin__
object
p2
Ntp3
Rp4
(dp5
S'sort'
p6
I01
sS'dtype'
p7
cnumpy
float64
p8
sS'separator'
p9
S'='
p10
sS'sparse'
p11
I01
sb.